; Function Attrs: mustprogress nounwind uwtable
define dso_local void @_ZN5clang11FileManager13trackVFSUsageEb(ptr nocapture noundef nonnull readonly align 8 dereferenceable(808) %0, i1 noundef zeroext %1) local_unnamed_addr #0 align 2 {
  %3 = alloca %class.anon, align 1
  %4 = zext i1 %1 to i8
  %5 = getelementptr inbounds nuw i8, ptr %0, i64 8
  %6 = load ptr, ptr %5, align 8
  store i8 %4, ptr %3, align 1
  %7 = load ptr, ptr %6, align 8
  %8 = getelementptr inbounds i8, ptr %7, i64 24
  %9 = load ptr, ptr %8, align 8
  %10 = tail call noundef zeroext i1 %9(ptr noundef nonnull align 8 dereferenceable(8) %6, ptr noundef nonnull @_ZN4llvm3vfs21RedirectingFileSystem2IDE) #17
  br i1 %10, label %11, label %"_ZN4llvm12function_refIFvRNS_3vfs10FileSystemEEE11callback_fnIZN5clang11FileManager13trackVFSUsageEbE3$_0EEvlS3_.exit"

11:                                               ; preds = %2
  %12 = getelementptr inbounds nuw i8, ptr %6, i64 116
  store i8 %4, ptr %12, align 4
  br label %"_ZN4llvm12function_refIFvRNS_3vfs10FileSystemEEE11callback_fnIZN5clang11FileManager13trackVFSUsageEbE3$_0EEvlS3_.exit"

"_ZN4llvm12function_refIFvRNS_3vfs10FileSystemEEE11callback_fnIZN5clang11FileManager13trackVFSUsageEbE3$_0EEvlS3_.exit": ; preds = %2, %11
  %13 = ptrtoint ptr %3 to i64
  %14 = load ptr, ptr %6, align 8
  %15 = getelementptr inbounds i8, ptr %14, i64 112
  %16 = load ptr, ptr %15, align 8
  call void %16(ptr noundef nonnull align 8 dereferenceable(12) %6, ptr nonnull @"_ZN4llvm12function_refIFvRNS_3vfs10FileSystemEEE11callback_fnIZN5clang11FileManager13trackVFSUsageEbE3$_0EEvlS3_", i64 %13) #17
  ret void
}